Certificate:
    Data:
        Version: 3 (0x2)
        Serial Number: 2 (0x2)
        Signature Algorithm: md5WithRSAEncryption
        Issuer: C=PL, O=HoneySpy network, OU=Master Server, CN=Master
        Validity
            Not Before: Nov  6 01:09:45 2005 GMT
            Not After : Nov  6 01:09:45 2006 GMT
        Subject: C=PL, O=HoneySpy network, OU=admin, CN=admin
        Subject Public Key Info:
            Public Key Algorithm: rsaEncryption
            RSA Public Key: (1024 bit)
                Modulus (1024 bit):
                    00:d1:79:d6:64:0f:4f:61:d3:e6:f0:a5:10:76:cc:
                    16:8c:d0:1f:49:94:5b:64:f1:4a:79:fa:dc:9d:81:
                    87:80:ca:be:20:3a:1d:37:13:e4:8a:97:03:52:1f:
                    3a:d0:25:c1:79:f6:25:3d:c3:7a:2e:a6:8d:14:1f:
                    ed:41:f9:0e:c0:31:46:63:ad:af:a3:5e:d8:87:27:
                    ed:6b:bb:4f:82:c1:4a:91:07:0c:9a:fa:3a:11:0e:
                    69:b5:37:80:5f:66:f2:77:88:79:ac:65:38:f2:e9:
                    78:3f:85:53:4c:de:46:16:f5:67:a5:72:d9:57:ac:
                    b7:82:a4:cf:3e:35:5c:46:13
                Exponent: 65537 (0x10001)
        X509v3 extensions:
            X509v3 Basic Constraints: 
                CA:FALSE
            Netscape Comment: 
                OpenSSL Generated Certificate
            X509v3 Subject Key Identifier: 
                1E:05:89:FF:45:E6:55:3B:6A:08:6D:53:D6:F6:D9:A5:45:60:E0:46
            X509v3 Authority Key Identifier: 
                keyid:5E:E6:37:0F:7D:95:95:3A:15:02:9D:E5:06:9C:F4:59:11:35:13:A2
                DirName:/C=PL/O=HoneySpy network/OU=Master Server/CN=Master
                serial:90:D0:FC:BB:23:2B:7C:8F

    Signature Algorithm: md5WithRSAEncryption
        7b:c0:c7:95:cd:bb:f9:c3:cc:cc:05:64:02:11:94:11:47:0a:
        fb:a3:cd:ef:ef:a7:a9:17:ac:fb:1b:0b:78:fe:75:4a:6a:e2:
        88:4b:bf:a3:ca:2e:bf:c6:9d:f0:d7:50:98:8e:91:6b:e6:15:
        18:ea:c5:04:03:6c:8f:d2:8d:25:dc:71:61:51:33:31:bd:4c:
        b3:a4:3c:87:f8:91:57:76:39:85:fb:ce:1c:8f:b5:6a:e3:f4:
        73:67:55:3d:2d:e2:15:43:cb:6c:c4:fd:22:ce:71:c4:ff:2e:
        5e:a8:31:8d:dc:4a:3b:a3:9e:34:90:91:8d:ba:74:22:98:8d:
        f8:f6
-----BEGIN CERTIFICATE-----
MIIC7zCCAligAwIBAgIBAjANBgkqhkiG9w0BAQQFADBRMQswCQYDVQQGEwJQTDEZ
MBcGA1UEChMQSG9uZXlTcHkgbmV0d29yazEWMBQGA1UECxMNTWFzdGVyIFNlcnZl
cjEPMA0GA1UEAxMGTWFzdGVyMB4XDTA1MTEwNjAxMDk0NVoXDTA2MTEwNjAxMDk0
NVowSDELMAkGA1UEBhMCUEwxGTAXBgNVBAoTEEhvbmV5U3B5IG5ldHdvcmsxDjAM
BgNVBAsTBWFkbWluMQ4wDAYDVQQDEwVhZG1pbjCBnzANBgkqhkiG9w0BAQEFAAOB
jQAwgYkCgYEA0XnWZA9PYdPm8KUQdswWjNAfSZRbZPFKefrcnYGHgMq+IDodNxPk
ipcDUh860CXBefYlPcN6LqaNFB/tQfkOwDFGY62vo17Yhyfta7tPgsFKkQcMmvo6
EQ5ptTeAX2byd4h5rGU48ul4P4VTTN5GFvVnpXLZV6y3gqTPPjVcRhMCAwEAAaOB
3zCB3DAJBgNVHRMEAjAAMCwGCWCGSAGG+EIBDQQfFh1PcGVuU1NMIEdlbmVyYXRl
ZCBDZXJ0aWZpY2F0ZTAdBgNVHQ4EFgQUHgWJ/0XmVTtqCG1T1vbZpUVg4EYwgYEG
A1UdIwR6MHiAFF7mNw99lZU6FQKd5Qac9FkRNROioVWkUzBRMQswCQYDVQQGEwJQ
TDEZMBcGA1UEChMQSG9uZXlTcHkgbmV0d29yazEWMBQGA1UECxMNTWFzdGVyIFNl
cnZlcjEPMA0GA1UEAxMGTWFzdGVyggkAkND8uyMrfI8wDQYJKoZIhvcNAQEEBQAD
gYEAe8DHlc27+cPMzAVkAhGUEUcK+6PN7++nqRes+xsLeP51SmriiEu/o8ouv8ad
8NdQmI6Ra+YVGOrFBANsj9KNJdxxYVEzMb1Ms6Q8h/iRV3Y5hfvOHI+1auP0c2dV
PS3iFUPLbMT9Is5xxP8uXqgxjdxKO6OeNJCRjbp0IpiN+PY=
-----END CERTIFICATE-----
