Certificate:
    Data:
        Version: 3 (0x2)
        Serial Number: 13 (0xd)
        Signature Algorithm: md5WithRSAEncryption
        Issuer: C=PL, O=HoneySpy network, OU=Master Server, CN=Master
        Validity
            Not Before: Jan  3 16:25:09 2006 GMT
            Not After : Jan  3 16:25:09 2007 GMT
        Subject: C=PL, O=HoneySpy network, OU=sensor, CN=rocket
        Subject Public Key Info:
            Public Key Algorithm: rsaEncryption
            RSA Public Key: (1024 bit)
                Modulus (1024 bit):
                    00:d2:28:2c:c6:05:1f:75:e6:8f:7e:ea:5f:8a:5a:
                    5d:e2:da:d5:da:28:1c:63:20:c7:23:92:84:bd:da:
                    1e:5a:0f:f7:a2:7e:3b:df:2c:4d:c2:50:4e:b3:d9:
                    72:af:59:dd:b8:2c:18:5b:12:0f:19:aa:24:6b:7b:
                    e2:b3:21:69:9e:0f:67:d0:fd:6f:b1:2d:f8:8b:57:
                    56:f9:89:cd:d9:b1:0f:f2:a6:b5:04:93:fd:d6:c0:
                    fc:97:23:88:5d:da:50:de:f9:58:91:eb:54:f9:c7:
                    c8:d8:fa:bb:ea:97:9b:76:40:85:5b:76:c6:c5:8a:
                    e2:2b:58:78:4b:0b:ac:f2:b1
                Exponent: 65537 (0x10001)
        X509v3 extensions:
            X509v3 Basic Constraints: 
                CA:FALSE
            Netscape Comment: 
                OpenSSL Generated Certificate
            X509v3 Subject Key Identifier: 
                C8:BC:B2:48:F5:7D:9C:A7:4D:E5:63:ED:CB:B4:29:8D:1F:6A:27:6F
            X509v3 Authority Key Identifier: 
                keyid:2D:1F:21:5E:2E:B0:EE:3F:8A:1A:AB:21:83:50:AE:E4:07:3D:AD:D7
                DirName:/C=PL/O=HoneySpy network/OU=Master Server/CN=Master
                serial:EC:D1:99:82:F6:B1:61:CD

    Signature Algorithm: md5WithRSAEncryption
        19:cf:8b:e5:21:9d:31:29:c3:ed:d4:51:4f:b0:20:12:20:50:
        4f:b4:d6:cc:f8:fa:1b:09:82:ca:f3:04:90:92:d8:28:c0:94:
        08:68:75:6f:38:c2:d2:e6:ab:dc:47:a0:da:dc:f4:b6:0a:ca:
        28:ee:ac:e9:c6:e1:81:f2:37:65:5c:05:73:91:5d:7a:7a:8a:
        90:05:e2:50:3a:16:cb:66:cc:b7:b0:8b:c0:9b:27:5b:1d:9e:
        cc:71:64:70:3c:49:8e:64:30:c5:53:ed:0d:64:53:ae:3b:4e:
        95:da:02:68:16:f6:a3:26:8e:10:dc:f9:1a:2f:ce:db:30:38:
        09:1b
-----BEGIN CERTIFICATE-----
MIIC8TCCAlqgAwIBAgIBDTANBgkqhkiG9w0BAQQFADBRMQswCQYDVQQGEwJQTDEZ
MBcGA1UEChMQSG9uZXlTcHkgbmV0d29yazEWMBQGA1UECxMNTWFzdGVyIFNlcnZl
cjEPMA0GA1UEAxMGTWFzdGVyMB4XDTA2MDEwMzE2MjUwOVoXDTA3MDEwMzE2MjUw
OVowSjELMAkGA1UEBhMCUEwxGTAXBgNVBAoTEEhvbmV5U3B5IG5ldHdvcmsxDzAN
BgNVBAsTBnNlbnNvcjEPMA0GA1UEAxMGcm9ja2V0MIGfMA0GCSqGSIb3DQEBAQUA
A4GNADCBiQKBgQDSKCzGBR915o9+6l+KWl3i2tXaKBxjIMcjkoS92h5aD/eifjvf
LE3CUE6z2XKvWd24LBhbEg8ZqiRre+KzIWmeD2fQ/W+xLfiLV1b5ic3ZsQ/yprUE
k/3WwPyXI4hd2lDe+ViR61T5x8jY+rvql5t2QIVbdsbFiuIrWHhLC6zysQIDAQAB
o4HfMIHcMAkGA1UdEwQCMAAwLAYJYIZIAYb4QgENBB8WHU9wZW5TU0wgR2VuZXJh
dGVkIENlcnRpZmljYXRlMB0GA1UdDgQWBBTIvLJI9X2cp03lY+3LtCmNH2onbzCB
gQYDVR0jBHoweIAULR8hXi6w7j+KGqshg1Cu5Ac9rdehVaRTMFExCzAJBgNVBAYT
AlBMMRkwFwYDVQQKExBIb25leVNweSBuZXR3b3JrMRYwFAYDVQQLEw1NYXN0ZXIg
U2VydmVyMQ8wDQYDVQQDEwZNYXN0ZXKCCQDs0ZmC9rFhzTANBgkqhkiG9w0BAQQF
AAOBgQAZz4vlIZ0xKcPt1FFPsCASIFBPtNbM+PobCYLK8wSQktgowJQIaHVvOMLS
5qvcR6Da3PS2Csoo7qzpxuGB8jdlXAVzkV16eoqQBeJQOhbLZsy3sIvAmydbHZ7M
cWRwPEmOZDDFU+0NZFOuO06V2gJoFvajJo4Q3PkaL87bMDgJGw==
-----END CERTIFICATE-----
