Certificate:
    Data:
        Version: 3 (0x2)
        Serial Number: 1 (0x1)
        Signature Algorithm: md5WithRSAEncryption
        Issuer: C=PL, O=HoneySpy network, OU=Master Server, CN=Master
        Validity
            Not Before: Nov  1 10:25:30 2005 GMT
            Not After : Nov  1 10:25:30 2006 GMT
        Subject: C=PL, O=HoneySpy network, OU=Sensor, CN=sensor1
        Subject Public Key Info:
            Public Key Algorithm: rsaEncryption
            RSA Public Key: (1024 bit)
                Modulus (1024 bit):
                    00:b4:19:47:90:42:d0:16:fe:6f:74:79:e5:9c:3e:
                    77:57:1b:8d:5e:db:40:8f:f2:80:ab:41:e6:bc:f3:
                    ad:5e:da:df:f3:1e:43:4c:42:25:93:5e:8c:c4:c5:
                    d1:aa:43:36:5d:76:b2:45:53:9a:33:9e:67:b4:35:
                    bd:04:3f:32:87:7f:ef:1e:78:f6:2a:7f:07:c3:01:
                    2e:17:65:36:33:73:f7:6c:48:4c:1c:7b:bc:4e:d4:
                    91:02:80:b5:a1:df:d6:6b:67:b6:31:a3:51:0f:45:
                    5b:19:ca:5b:f4:4a:8d:57:fe:c3:a8:e9:97:be:97:
                    de:a0:de:cc:e7:33:ee:ce:95
                Exponent: 65537 (0x10001)
        X509v3 extensions:
            X509v3 Basic Constraints: 
                CA:FALSE
            Netscape Comment: 
                OpenSSL Generated Certificate
            X509v3 Subject Key Identifier: 
                25:EE:F0:31:D2:65:34:7B:11:82:17:36:B3:92:EF:F3:A0:11:EA:69
            X509v3 Authority Key Identifier: 
                keyid:5E:E6:37:0F:7D:95:95:3A:15:02:9D:E5:06:9C:F4:59:11:35:13:A2
                DirName:/C=PL/O=HoneySpy network/OU=Master Server/CN=Master
                serial:90:D0:FC:BB:23:2B:7C:8F

    Signature Algorithm: md5WithRSAEncryption
        aa:25:e6:8a:1e:5e:01:54:3c:3d:fc:fb:b6:91:75:47:09:8c:
        80:4c:f7:e7:a4:cb:fc:41:1f:19:08:3f:20:32:9b:16:ef:86:
        1b:8c:4e:74:d0:9a:b6:e0:b4:43:62:d6:14:a8:2f:b1:5a:01:
        6e:b9:22:21:07:80:7d:60:2a:bc:f5:5b:eb:2e:85:fc:fd:12:
        3c:97:d6:aa:64:3c:d4:82:91:dd:66:29:e1:1c:8e:f7:79:32:
        0e:94:67:27:04:b4:88:67:4b:c5:3d:72:5e:68:4a:8c:15:b0:
        86:d3:67:e8:4a:9b:7c:f0:44:82:a5:de:bc:ee:fb:27:d3:b9:
        be:4e
-----BEGIN CERTIFICATE-----
MIIC8jCCAlugAwIBAgIBATANBgkqhkiG9w0BAQQFADBRMQswCQYDVQQGEwJQTDEZ
MBcGA1UEChMQSG9uZXlTcHkgbmV0d29yazEWMBQGA1UECxMNTWFzdGVyIFNlcnZl
cjEPMA0GA1UEAxMGTWFzdGVyMB4XDTA1MTEwMTEwMjUzMFoXDTA2MTEwMTEwMjUz
MFowSzELMAkGA1UEBhMCUEwxGTAXBgNVBAoTEEhvbmV5U3B5IG5ldHdvcmsxDzAN
BgNVBAsTBlNlbnNvcjEQMA4GA1UEAxMHc2Vuc29yMTCBnzANBgkqhkiG9w0BAQEF
AAOBjQAwgYkCgYEAtBlHkELQFv5vdHnlnD53VxuNXttAj/KAq0HmvPOtXtrf8x5D
TEIlk16MxMXRqkM2XXayRVOaM55ntDW9BD8yh3/vHnj2Kn8HwwEuF2U2M3P3bEhM
HHu8TtSRAoC1od/Wa2e2MaNRD0VbGcpb9EqNV/7DqOmXvpfeoN7M5zPuzpUCAwEA
AaOB3zCB3DAJBgNVHRMEAjAAMCwGCWCGSAGG+EIBDQQfFh1PcGVuU1NMIEdlbmVy
YXRlZCBDZXJ0aWZpY2F0ZTAdBgNVHQ4EFgQUJe7wMdJlNHsRghc2s5Lv86AR6mkw
gYEGA1UdIwR6MHiAFF7mNw99lZU6FQKd5Qac9FkRNROioVWkUzBRMQswCQYDVQQG
EwJQTDEZMBcGA1UEChMQSG9uZXlTcHkgbmV0d29yazEWMBQGA1UECxMNTWFzdGVy
IFNlcnZlcjEPMA0GA1UEAxMGTWFzdGVyggkAkND8uyMrfI8wDQYJKoZIhvcNAQEE
BQADgYEAqiXmih5eAVQ8Pfz7tpF1RwmMgEz356TL/EEfGQg/IDKbFu+GG4xOdNCa
tuC0Q2LWFKgvsVoBbrkiIQeAfWAqvPVb6y6F/P0SPJfWqmQ81IKR3WYp4RyO93ky
DpRnJwS0iGdLxT1yXmhKjBWwhtNn6EqbfPBEgqXevO77J9O5vk4=
-----END CERTIFICATE-----
