Certificate:
    Data:
        Version: 3 (0x2)
        Serial Number: 3 (0x3)
        Signature Algorithm: md5WithRSAEncryption
        Issuer: C=PL, O=HoneySpy network, OU=Master Server, CN=Master
        Validity
            Not Before: Nov  7 21:20:11 2005 GMT
            Not After : Nov  7 21:20:11 2006 GMT
        Subject: C=PL, O=HoneySpy network, OU=sensor, CN=sensor2
        Subject Public Key Info:
            Public Key Algorithm: rsaEncryption
            RSA Public Key: (1024 bit)
                Modulus (1024 bit):
                    00:ca:70:b7:06:3a:ed:2d:b0:b0:38:ee:84:32:b4:
                    ee:07:ef:91:3c:34:40:09:81:51:16:20:f1:aa:29:
                    18:4a:9e:4f:d8:8e:e1:11:25:f6:f5:fa:57:bc:d8:
                    90:9b:de:df:9f:b9:19:07:f3:47:3f:26:63:d0:58:
                    b0:49:ca:f1:b9:ba:a6:dd:cc:3c:cb:46:10:77:59:
                    43:2f:f5:a4:33:dc:54:de:7b:bf:3f:c0:70:dd:d3:
                    5a:22:64:ad:1a:66:d8:53:31:fc:36:f1:91:25:e1:
                    1d:16:a3:bc:1e:a4:6a:e3:13:da:43:fe:4d:65:ab:
                    84:14:5f:f6:f5:b9:e2:56:57
                Exponent: 65537 (0x10001)
        X509v3 extensions:
            X509v3 Basic Constraints: 
                CA:FALSE
            Netscape Comment: 
                OpenSSL Generated Certificate
            X509v3 Subject Key Identifier: 
                40:21:38:EE:BE:3A:95:45:14:FD:C8:7F:48:9D:DA:7F:85:8D:20:47
            X509v3 Authority Key Identifier: 
                keyid:5E:E6:37:0F:7D:95:95:3A:15:02:9D:E5:06:9C:F4:59:11:35:13:A2
                DirName:/C=PL/O=HoneySpy network/OU=Master Server/CN=Master
                serial:90:D0:FC:BB:23:2B:7C:8F

    Signature Algorithm: md5WithRSAEncryption
        12:18:c8:9b:cb:05:f8:ee:9f:54:c6:9f:a2:ae:aa:1c:3c:21:
        43:d7:b4:c1:69:41:27:ec:5f:4d:d3:84:ba:fc:e1:37:a0:b6:
        22:f1:f6:57:cd:af:11:45:ad:0d:f4:61:d6:8c:d8:5c:32:ea:
        52:72:2d:91:0a:1d:62:b3:2c:4d:bb:a4:ee:9a:d7:f9:c1:af:
        e1:2d:8e:5b:b9:1e:24:f6:fc:a7:bf:89:58:0c:3d:e2:14:d6:
        52:d7:8f:e6:0e:13:4f:94:5c:c4:dd:a9:e6:97:f1:b6:2e:81:
        99:65:c1:9a:ba:fb:62:76:b8:b8:1f:ee:a0:ad:47:33:d9:4a:
        f2:8e
-----BEGIN CERTIFICATE-----
MIIC8jCCAlugAwIBAgIBAzANBgkqhkiG9w0BAQQFADBRMQswCQYDVQQGEwJQTDEZ
MBcGA1UEChMQSG9uZXlTcHkgbmV0d29yazEWMBQGA1UECxMNTWFzdGVyIFNlcnZl
cjEPMA0GA1UEAxMGTWFzdGVyMB4XDTA1MTEwNzIxMjAxMVoXDTA2MTEwNzIxMjAx
MVowSzELMAkGA1UEBhMCUEwxGTAXBgNVBAoTEEhvbmV5U3B5IG5ldHdvcmsxDzAN
BgNVBAsTBnNlbnNvcjEQMA4GA1UEAxMHc2Vuc29yMjCBnzANBgkqhkiG9w0BAQEF
AAOBjQAwgYkCgYEAynC3BjrtLbCwOO6EMrTuB++RPDRACYFRFiDxqikYSp5P2I7h
ESX29fpXvNiQm97fn7kZB/NHPyZj0FiwScrxubqm3cw8y0YQd1lDL/WkM9xU3nu/
P8Bw3dNaImStGmbYUzH8NvGRJeEdFqO8HqRq4xPaQ/5NZauEFF/29bniVlcCAwEA
AaOB3zCB3DAJBgNVHRMEAjAAMCwGCWCGSAGG+EIBDQQfFh1PcGVuU1NMIEdlbmVy
YXRlZCBDZXJ0aWZpY2F0ZTAdBgNVHQ4EFgQUQCE47r46lUUU/ch/SJ3af4WNIEcw
gYEGA1UdIwR6MHiAFF7mNw99lZU6FQKd5Qac9FkRNROioVWkUzBRMQswCQYDVQQG
EwJQTDEZMBcGA1UEChMQSG9uZXlTcHkgbmV0d29yazEWMBQGA1UECxMNTWFzdGVy
IFNlcnZlcjEPMA0GA1UEAxMGTWFzdGVyggkAkND8uyMrfI8wDQYJKoZIhvcNAQEE
BQADgYEAEhjIm8sF+O6fVMafoq6qHDwhQ9e0wWlBJ+xfTdOEuvzhN6C2IvH2V82v
EUWtDfRh1ozYXDLqUnItkQodYrMsTbuk7prX+cGv4S2OW7keJPb8p7+JWAw94hTW
UteP5g4TT5RcxN2p5pfxti6BmWXBmrr7Yna4uB/uoK1HM9lK8o4=
-----END CERTIFICATE-----
